target datalayout = "e-m:e-p270:32:32-p271:32:32-p272:64:64-i64:64-i128:128-f80:128-n8:16:32:64-S128"
target triple = "x86_64-pc-linux-gnu"

%struct.LexizeData = type { ptr, i32, i32, %struct.DictSubState, ptr, %struct.ListParsedLex, %struct.ListParsedLex, ptr, ptr }
%struct.DictSubState = type { i8, i8, ptr }
%struct.ListParsedLex = type { ptr, ptr }
%struct.TSConfigCacheEntry = type { i32, i8, i32, i32, ptr }
%struct.TSParserCacheEntry = type { i32, i8, i32, i32, i32, i32, i32, %struct.FmgrInfo, %struct.FmgrInfo, %struct.FmgrInfo, %struct.FmgrInfo }
%struct.FmgrInfo = type { ptr, i32, i16, i8, i8, i8, ptr, ptr, ptr }
%struct.ParsedLex = type { i32, ptr, i32, ptr }
%struct.HeadlineParsedText = type { ptr, i32, i32, i32, ptr, ptr, ptr, i16, i16, i16 }

@.str = private unnamed_addr constant [31 x i8] c"word is too long to be indexed\00", align 1
@.str.1 = private unnamed_addr constant [45 x i8] c"Words longer than %d characters are ignored.\00", align 1
@.str.2 = private unnamed_addr constant [11 x i8] c"ts_parse.c\00", align 1
@__func__.hlparsetext = private unnamed_addr constant [12 x i8] c"hlparsetext\00", align 1

; Function Attrs: nounwind uwtable
define internal void @LPLAddTail(ptr noundef %0, ptr noundef %1) #0 {
  %3 = alloca ptr, align 8
  %4 = alloca ptr, align 8
  store ptr %0, ptr %3, align 8
  store ptr %1, ptr %4, align 8
  %5 = load ptr, ptr %3, align 8
  %6 = getelementptr inbounds nuw %struct.ListParsedLex, ptr %5, i32 0, i32 1
  %7 = load ptr, ptr %6, align 8
  %8 = icmp ne ptr %7, null
  br i1 %8, label %9, label %18

9:                                                ; preds = %2
  %10 = load ptr, ptr %4, align 8
  %11 = load ptr, ptr %3, align 8
  %12 = getelementptr inbounds nuw %struct.ListParsedLex, ptr %11, i32 0, i32 1
  %13 = load ptr, ptr %12, align 8
  %14 = getelementptr inbounds nuw %struct.ParsedLex, ptr %13, i32 0, i32 3
  store ptr %10, ptr %14, align 8
  %15 = load ptr, ptr %4, align 8
  %16 = load ptr, ptr %3, align 8
  %17 = getelementptr inbounds nuw %struct.ListParsedLex, ptr %16, i32 0, i32 1
  store ptr %15, ptr %17, align 8
  br label %24

18:                                               ; preds = %2
  %19 = load ptr, ptr %4, align 8
  %20 = load ptr, ptr %3, align 8
  %21 = getelementptr inbounds nuw %struct.ListParsedLex, ptr %20, i32 0, i32 1
  store ptr %19, ptr %21, align 8
  %22 = load ptr, ptr %3, align 8
  %23 = getelementptr inbounds nuw %struct.ListParsedLex, ptr %22, i32 0, i32 0
  store ptr %19, ptr %23, align 8
  br label %24

24:                                               ; preds = %18, %9
  %25 = load ptr, ptr %4, align 8
  %26 = getelementptr inbounds nuw %struct.ParsedLex, ptr %25, i32 0, i32 3
  store ptr null, ptr %26, align 8
  ret void
}

; Function Attrs: nounwind uwtable
define internal void @LexizeAddLemm(ptr noundef %0, i32 noundef %1, ptr noundef %2, i32 noundef %3) #0 {
  %5 = alloca ptr, align 8
  %6 = alloca i32, align 4
  %7 = alloca ptr, align 8
  %8 = alloca i32, align 4
  %9 = alloca ptr, align 8
  store ptr %0, ptr %5, align 8
  store i32 %1, ptr %6, align 4
  store ptr %2, ptr %7, align 8
  store i32 %3, ptr %8, align 4
  call void @llvm.lifetime.start.p0(i64 8, ptr %9) #8
  %10 = call ptr @palloc(i64 noundef 32)
  store ptr %10, ptr %9, align 8
  %11 = load i32, ptr %6, align 4
  %12 = load ptr, ptr %9, align 8
  %13 = getelementptr inbounds nuw %struct.ParsedLex, ptr %12, i32 0, i32 0
  store i32 %11, ptr %13, align 8
  %14 = load ptr, ptr %7, align 8
  %15 = load ptr, ptr %9, align 8
  %16 = getelementptr inbounds nuw %struct.ParsedLex, ptr %15, i32 0, i32 1
  store ptr %14, ptr %16, align 8
  %17 = load i32, ptr %8, align 4
  %18 = load ptr, ptr %9, align 8
  %19 = getelementptr inbounds nuw %struct.ParsedLex, ptr %18, i32 0, i32 2
  store i32 %17, ptr %19, align 8
  %20 = load ptr, ptr %5, align 8
  %21 = getelementptr inbounds nuw %struct.LexizeData, ptr %20, i32 0, i32 5
  %22 = load ptr, ptr %9, align 8
  call void @LPLAddTail(ptr noundef %21, ptr noundef %22)
  %23 = load ptr, ptr %5, align 8
  %24 = getelementptr inbounds nuw %struct.LexizeData, ptr %23, i32 0, i32 5
  %25 = getelementptr inbounds nuw %struct.ListParsedLex, ptr %24, i32 0, i32 1
  %26 = load ptr, ptr %25, align 8
  %27 = load ptr, ptr %5, align 8
  %28 = getelementptr inbounds nuw %struct.LexizeData, ptr %27, i32 0, i32 4
  store ptr %26, ptr %28, align 8
  call void @llvm.lifetime.end.p0(i64 8, ptr %9) #8
  ret void
}

; Function Attrs: inlinehint nounwind uwtable
define internal i32 @DatumGetInt32(i64 noundef %0) #3 {
  %2 = alloca i64, align 8
  store i64 %0, ptr %2, align 8
  %3 = load i64, ptr %2, align 8
  %4 = trunc i64 %3 to i32
  ret i32 %4
}

; Function Attrs: nounwind uwtable
define internal void @LexizeInit(ptr noundef %0, ptr noundef %1) #0 {
  %3 = alloca ptr, align 8
  %4 = alloca ptr, align 8
  store ptr %0, ptr %3, align 8
  store ptr %1, ptr %4, align 8
  %5 = load ptr, ptr %4, align 8
  %6 = load ptr, ptr %3, align 8
  %7 = getelementptr inbounds nuw %struct.LexizeData, ptr %6, i32 0, i32 0
  store ptr %5, ptr %7, align 8
  %8 = load ptr, ptr %3, align 8
  %9 = getelementptr inbounds nuw %struct.LexizeData, ptr %8, i32 0, i32 1
  store i32 0, ptr %9, align 8
  %10 = load ptr, ptr %3, align 8
  %11 = getelementptr inbounds nuw %struct.LexizeData, ptr %10, i32 0, i32 2
  store i32 0, ptr %11, align 4
  %12 = load ptr, ptr %3, align 8
  %13 = getelementptr inbounds nuw %struct.LexizeData, ptr %12, i32 0, i32 4
  store ptr null, ptr %13, align 8
  %14 = load ptr, ptr %3, align 8
  %15 = getelementptr inbounds nuw %struct.LexizeData, ptr %14, i32 0, i32 5
  %16 = getelementptr inbounds nuw %struct.ListParsedLex, ptr %15, i32 0, i32 1
  store ptr null, ptr %16, align 8
  %17 = load ptr, ptr %3, align 8
  %18 = getelementptr inbounds nuw %struct.LexizeData, ptr %17, i32 0, i32 5
  %19 = getelementptr inbounds nuw %struct.ListParsedLex, ptr %18, i32 0, i32 0
  store ptr null, ptr %19, align 8
  %20 = load ptr, ptr %3, align 8
  %21 = getelementptr inbounds nuw %struct.LexizeData, ptr %20, i32 0, i32 6
  %22 = getelementptr inbounds nuw %struct.ListParsedLex, ptr %21, i32 0, i32 1
  store ptr null, ptr %22, align 8
  %23 = load ptr, ptr %3, align 8
  %24 = getelementptr inbounds nuw %struct.LexizeData, ptr %23, i32 0, i32 6
  %25 = getelementptr inbounds nuw %struct.ListParsedLex, ptr %24, i32 0, i32 0
  store ptr null, ptr %25, align 8
  %26 = load ptr, ptr %3, align 8
  %27 = getelementptr inbounds nuw %struct.LexizeData, ptr %26, i32 0, i32 7
  store ptr null, ptr %27, align 8
  %28 = load ptr, ptr %3, align 8
  %29 = getelementptr inbounds nuw %struct.LexizeData, ptr %28, i32 0, i32 8
  store ptr null, ptr %29, align 8
  ret void
}

; Function Attrs: inlinehint nounwind uwtable
define internal ptr @DatumGetPointer(i64 noundef %0) #3 {
  %2 = alloca i64, align 8
  store i64 %0, ptr %2, align 8
  %3 = load i64, ptr %2, align 8
  %4 = inttoptr i64 %3 to ptr
  ret ptr %4
}

; Function Attrs: inlinehint nounwind uwtable
define internal i64 @Int32GetDatum(i32 noundef %0) #3 {
  %2 = alloca i32, align 4
  store i32 %0, ptr %2, align 4
  %3 = load i32, ptr %2, align 4
  %4 = sext i32 %3 to i64
  ret i64 %4
}

; Function Attrs: inlinehint nounwind uwtable
define internal i64 @PointerGetDatum(ptr noundef %0) #3 {
  %2 = alloca ptr, align 8
  store ptr %0, ptr %2, align 8
  %3 = load ptr, ptr %2, align 8
  %4 = ptrtoint ptr %3 to i64
  ret i64 %4
}

; Function Attrs: nounwind uwtable
define dso_local void @hlparsetext(i32 noundef %0, ptr noundef %1, ptr noundef %2, ptr noundef %3, i32 noundef %4) #0 {
  %6 = alloca i32, align 4
  %7 = alloca ptr, align 8
  %8 = alloca ptr, align 8
  %9 = alloca ptr, align 8
  %10 = alloca i32, align 4
  %11 = alloca i32, align 4
  %12 = alloca i32, align 4
  %13 = alloca ptr, align 8
  %14 = alloca %struct.LexizeData, align 8
  %15 = alloca ptr, align 8
  %16 = alloca ptr, align 8
  %17 = alloca ptr, align 8
  %18 = alloca ptr, align 8
  %19 = alloca ptr, align 8
  store i32 %0, ptr %6, align 4
  store ptr %1, ptr %7, align 8
  store ptr %2, ptr %8, align 8
  store ptr %3, ptr %9, align 8
  store i32 %4, ptr %10, align 4
  call void @llvm.lifetime.start.p0(i64 4, ptr %11) #8
  call void @llvm.lifetime.start.p0(i64 4, ptr %12) #8
  store i32 0, ptr %12, align 4
  call void @llvm.lifetime.start.p0(i64 8, ptr %13) #8
  store ptr null, ptr %13, align 8
  call void @llvm.lifetime.start.p0(i64 88, ptr %14) #8
  call void @llvm.lifetime.start.p0(i64 8, ptr %15) #8
  call void @llvm.lifetime.start.p0(i64 8, ptr %16) #8
  call void @llvm.lifetime.start.p0(i64 8, ptr %17) #8
  call void @llvm.lifetime.start.p0(i64 8, ptr %18) #8
  call void @llvm.lifetime.start.p0(i64 8, ptr %19) #8
  %20 = load i32, ptr %6, align 4
  %21 = call ptr @lookup_ts_config_cache(i32 noundef %20)
  store ptr %21, ptr %17, align 8
  %22 = load ptr, ptr %17, align 8
  %23 = getelementptr inbounds nuw %struct.TSConfigCacheEntry, ptr %22, i32 0, i32 2
  %24 = load i32, ptr %23, align 8
  %25 = call ptr @lookup_ts_parser_cache(i32 noundef %24)
  store ptr %25, ptr %18, align 8
  %26 = load ptr, ptr %18, align 8
  %27 = getelementptr inbounds nuw %struct.TSParserCacheEntry, ptr %26, i32 0, i32 7
  %28 = load ptr, ptr %9, align 8
  %29 = call i64 @PointerGetDatum(ptr noundef %28)
  %30 = load i32, ptr %10, align 4
  %31 = call i64 @Int32GetDatum(i32 noundef %30)
  %32 = call i64 @FunctionCall2Coll(ptr noundef %27, i32 noundef 0, i64 noundef %29, i64 noundef %31)
  %33 = call ptr @DatumGetPointer(i64 noundef %32)
  store ptr %33, ptr %19, align 8
  %34 = load ptr, ptr %17, align 8
  call void @LexizeInit(ptr noundef %14, ptr noundef %34)
  br label %35

35:                                               ; preds = %87, %5
  %36 = load ptr, ptr %18, align 8
  %37 = getelementptr inbounds nuw %struct.TSParserCacheEntry, ptr %36, i32 0, i32 8
  %38 = load ptr, ptr %19, align 8
  %39 = call i64 @PointerGetDatum(ptr noundef %38)
  %40 = call i64 @PointerGetDatum(ptr noundef %13)
  %41 = call i64 @PointerGetDatum(ptr noundef %12)
  %42 = call i64 @FunctionCall3Coll(ptr noundef %37, i32 noundef 0, i64 noundef %39, i64 noundef %40, i64 noundef %41)
  %43 = call i32 @DatumGetInt32(i64 noundef %42)
  store i32 %43, ptr %11, align 4
  %44 = load i32, ptr %11, align 4
  %45 = icmp sgt i32 %44, 0
  br i1 %45, label %46, label %62

46:                                               ; preds = %35
  %47 = load i32, ptr %12, align 4
  %48 = icmp sge i32 %47, 2047
  br i1 %48, label %49, label %62

49:                                               ; preds = %46
  br label %50

50:                                               ; preds = %49
  br i1 false, label %51, label %53

51:                                               ; preds = %50
  %52 = call zeroext i1 @errstart_cold(i32 noundef 18, ptr noundef null) #9
  br i1 %52, label %55, label %59

53:                                               ; preds = %50
  %54 = call zeroext i1 @errstart(i32 noundef 18, ptr noundef null)
  br i1 %54, label %55, label %59

55:                                               ; preds = %53, %51
  %56 = call i32 @errcode(i32 noundef 261)
  %57 = call i32 (ptr, ...) @errmsg(ptr noundef @.str)
  %58 = call i32 (ptr, ...) @errdetail(ptr noundef @.str.1, i32 noundef 2047)
  call void @errfinish(ptr noundef @.str.2, i32 noundef 575, ptr noundef @__func__.hlparsetext)
  br label %59

59:                                               ; preds = %55, %53, %51
  br label %60

60:                                               ; preds = %59
  br label %61

61:                                               ; preds = %60
  br label %87

62:                                               ; preds = %46, %35
  %63 = load i32, ptr %11, align 4
  %64 = load ptr, ptr %13, align 8
  %65 = load i32, ptr %12, align 4
  call void @LexizeAddLemm(ptr noundef %14, i32 noundef %63, ptr noundef %64, i32 noundef %65)
  br label %66

66:                                               ; preds = %83, %62
  %67 = call ptr @LexizeExec(ptr noundef %14, ptr noundef %16)
  store ptr %67, ptr %15, align 8
  %68 = icmp ne ptr %67, null
  br i1 %68, label %69, label %78

69:                                               ; preds = %66
  %70 = load ptr, ptr %7, align 8
  %71 = getelementptr inbounds nuw %struct.HeadlineParsedText, ptr %70, i32 0, i32 3
  %72 = load i32, ptr %71, align 8
  %73 = add i32 %72, 1
  store i32 %73, ptr %71, align 8
  %74 = load ptr, ptr %7, align 8
  %75 = load ptr, ptr %8, align 8
  %76 = load ptr, ptr %16, align 8
  %77 = load ptr, ptr %15, align 8
  call void @addHLParsedLex(ptr noundef %74, ptr noundef %75, ptr noundef %76, ptr noundef %77)
  br label %82

78:                                               ; preds = %66
  %79 = load ptr, ptr %7, align 8
  %80 = load ptr, ptr %8, align 8
  %81 = load ptr, ptr %16, align 8
  call void @addHLParsedLex(ptr noundef %79, ptr noundef %80, ptr noundef %81, ptr noundef null)
  br label %82

82:                                               ; preds = %78, %69
  br label %83

83:                                               ; preds = %82
  %84 = load ptr, ptr %15, align 8
  %85 = icmp ne ptr %84, null
  br i1 %85, label %66, label %86, !llvm.loop !14

86:                                               ; preds = %83
  br label %87

87:                                               ; preds = %86, %61
  %88 = load i32, ptr %11, align 4
  %89 = icmp sgt i32 %88, 0
  br i1 %89, label %35, label %90, !llvm.loop !15

90:                                               ; preds = %87
  %91 = load ptr, ptr %18, align 8
  %92 = getelementptr inbounds nuw %struct.TSParserCacheEntry, ptr %91, i32 0, i32 9
  %93 = load ptr, ptr %19, align 8
  %94 = call i64 @PointerGetDatum(ptr noundef %93)
  %95 = call i64 @FunctionCall1Coll(ptr noundef %92, i32 noundef 0, i64 noundef %94)
  call void @llvm.lifetime.end.p0(i64 8, ptr %19) #8
  call void @llvm.lifetime.end.p0(i64 8, ptr %18) #8
  call void @llvm.lifetime.end.p0(i64 8, ptr %17) #8
  call void @llvm.lifetime.end.p0(i64 8, ptr %16) #8
  call void @llvm.lifetime.end.p0(i64 8, ptr %15) #8
  call void @llvm.lifetime.end.p0(i64 88, ptr %14) #8
  call void @llvm.lifetime.end.p0(i64 8, ptr %13) #8
  call void @llvm.lifetime.end.p0(i64 4, ptr %12) #8
  call void @llvm.lifetime.end.p0(i64 4, ptr %11) #8
  ret void
}