; Function Attrs: nounwind uwtable
define dso_local void @hlparsetext(i32 noundef %0, ptr noundef captures(none) %1, ptr noundef %2, ptr noundef %3, i32 noundef %4) local_unnamed_addr #0 {
  %6 = alloca i32, align 4
  %7 = alloca ptr, align 8
  %8 = alloca %struct.LexizeData, align 8
  %9 = alloca ptr, align 8
  call void @llvm.lifetime.start.p0(i64 4, ptr nonnull %6) #7
  store i32 0, ptr %6, align 4
  call void @llvm.lifetime.start.p0(i64 8, ptr nonnull %7) #7
  store ptr null, ptr %7, align 8
  call void @llvm.lifetime.start.p0(i64 88, ptr nonnull %8) #7
  call void @llvm.lifetime.start.p0(i64 8, ptr nonnull %9) #7
  %10 = tail call ptr @lookup_ts_config_cache(i32 noundef %0) #7
  %11 = getelementptr inbounds nuw i8, ptr %10, i64 8
  %12 = load i32, ptr %11, align 8
  %13 = tail call ptr @lookup_ts_parser_cache(i32 noundef %12) #7
  %14 = getelementptr inbounds nuw i8, ptr %13, i64 32
  %15 = ptrtoint ptr %3 to i64
  %16 = sext i32 %4 to i64
  %17 = tail call i64 @FunctionCall2Coll(ptr noundef nonnull %14, i32 noundef 0, i64 noundef %15, i64 noundef %16) #7
  store ptr %10, ptr %8, align 8
  %18 = getelementptr inbounds nuw i8, ptr %8, i64 8
  store i32 0, ptr %18, align 8
  %19 = getelementptr inbounds nuw i8, ptr %8, i64 12
  store i32 0, ptr %19, align 4
  %20 = getelementptr inbounds nuw i8, ptr %8, i64 32
  call void @llvm.memset.p0.i64(ptr noundef nonnull align 8 dereferenceable(56) %20, i8 0, i64 56, i1 false)
  %21 = getelementptr inbounds nuw i8, ptr %13, i64 80
  %22 = ptrtoint ptr %7 to i64
  %23 = ptrtoint ptr %6 to i64
  %24 = getelementptr inbounds nuw i8, ptr %8, i64 48
  %25 = getelementptr inbounds nuw i8, ptr %8, i64 40
  %26 = getelementptr inbounds nuw i8, ptr %1, i64 16
  %27 = getelementptr inbounds nuw i8, ptr %1, i64 12
  %28 = getelementptr inbounds nuw i8, ptr %1, i64 8
  br label %29

29:                                               ; preds = %addHLParsedLex.exit.thread, %5
  %30 = call i64 @FunctionCall3Coll(ptr noundef nonnull %21, i32 noundef 0, i64 noundef %17, i64 noundef %22, i64 noundef %23) #7
  %31 = trunc i64 %30 to i32
  %32 = icmp sgt i32 %31, 0
  %33 = load i32, ptr %6, align 4
  %34 = icmp sgt i32 %33, 2046
  %or.cond = select i1 %32, i1 %34, i1 false
  br i1 %or.cond, label %35, label %41

35:                                               ; preds = %29
  %36 = call zeroext i1 @errstart(i32 noundef 18, ptr noundef null) #7
  br i1 %36, label %37, label %addHLParsedLex.exit.thread

37:                                               ; preds = %35
  %38 = call i32 @errcode(i32 noundef 261) #7
  %39 = call i32 (ptr, ...) @errmsg(ptr noundef nonnull @.str) #7
  %40 = call i32 (ptr, ...) @errdetail(ptr noundef nonnull @.str.1, i32 noundef 2047) #7
  call void @errfinish(ptr noundef nonnull @.str.2, i32 noundef 575, ptr noundef nonnull @__func__.hlparsetext) #7
  br label %addHLParsedLex.exit.thread

41:                                               ; preds = %29
  %42 = load ptr, ptr %7, align 8
  %43 = call ptr @palloc(i64 noundef 32) #7
  store i32 %31, ptr %43, align 8
  %44 = getelementptr inbounds nuw i8, ptr %43, i64 8
  store ptr %42, ptr %44, align 8
  %45 = getelementptr inbounds nuw i8, ptr %43, i64 16
  store i32 %33, ptr %45, align 8
  %46 = load ptr, ptr %24, align 8
  %.not.i.i = icmp eq ptr %46, null
  br i1 %.not.i.i, label %49, label %47

47:                                               ; preds = %41
  %48 = getelementptr inbounds nuw i8, ptr %46, i64 24
  store ptr %43, ptr %48, align 8
  br label %LexizeAddLemm.exit

49:                                               ; preds = %41
  store ptr %43, ptr %25, align 8
  br label %LexizeAddLemm.exit

LexizeAddLemm.exit:                               ; preds = %47, %49
  store ptr %43, ptr %24, align 8
  %50 = getelementptr inbounds nuw i8, ptr %43, i64 24
  store ptr null, ptr %50, align 8
  %51 = load ptr, ptr %24, align 8
  store ptr %51, ptr %20, align 8
  br label %52

52:                                               ; preds = %addHLParsedLex.exit, %LexizeAddLemm.exit
  %53 = call fastcc ptr @LexizeExec(ptr noundef %8, ptr noundef nonnull %9)
  %.not = icmp eq ptr %53, null
  br i1 %.not, label %58, label %54

54:                                               ; preds = %52
  %55 = load i32, ptr %26, align 8
  %56 = add i32 %55, 1
  store i32 %56, ptr %26, align 8
  %57 = load ptr, ptr %9, align 8
  call fastcc void @addHLParsedLex(ptr noundef %1, ptr noundef %2, ptr noundef %57, ptr noundef nonnull %53)
  br label %addHLParsedLex.exit

58:                                               ; preds = %52
  %59 = load ptr, ptr %9, align 8
  %.not45.i = icmp eq ptr %59, null
  br i1 %.not45.i, label %addHLParsedLex.exit.thread, label %.lr.ph47.i

.lr.ph47.i:                                       ; preds = %58, %108
  %.03046.i = phi ptr [ %110, %108 ], [ %59, %58 ]
  %60 = load i32, ptr %.03046.i, align 8
  %61 = icmp sgt i32 %60, 0
  br i1 %61, label %62, label %108

62:                                               ; preds = %.lr.ph47.i
  %63 = getelementptr inbounds nuw i8, ptr %.03046.i, i64 8
  %64 = load ptr, ptr %63, align 8
  %65 = getelementptr inbounds nuw i8, ptr %.03046.i, i64 16
  %66 = load i32, ptr %65, align 8
  %67 = load i32, ptr %27, align 4
  %68 = load i32, ptr %28, align 8
  %.not.i.i20 = icmp slt i32 %67, %68
  %.pre.i.i = load ptr, ptr %1, align 8
  br i1 %.not.i.i20, label %hladdword.exit.i, label %69

69:                                               ; preds = %62
  %70 = shl i32 %68, 1
  store i32 %70, ptr %28, align 8
  %71 = sext i32 %70 to i64
  %72 = mul nsw i64 %71, 24
  %73 = call ptr @repalloc(ptr noundef %.pre.i.i, i64 noundef %72) #7
  store ptr %73, ptr %1, align 8
  %.pre21.i.i = load i32, ptr %27, align 4
  br label %hladdword.exit.i

hladdword.exit.i:                                 ; preds = %69, %62
  %74 = phi i32 [ %.pre21.i.i, %69 ], [ %67, %62 ]
  %75 = phi ptr [ %73, %69 ], [ %.pre.i.i, %62 ]
  %76 = sext i32 %74 to i64
  %77 = getelementptr inbounds %struct.HeadlineWordEntry, ptr %75, i64 %76
  call void @llvm.memset.p0.i64(ptr noundef nonnull align 8 dereferenceable(24) %77, i8 0, i64 24, i1 false)
  %78 = load ptr, ptr %1, align 8
  %79 = load i32, ptr %27, align 4
  %80 = sext i32 %79 to i64
  %81 = getelementptr inbounds %struct.HeadlineWordEntry, ptr %78, i64 %80
  %82 = load i32, ptr %81, align 8
  %83 = shl i32 %60, 8
  %84 = and i32 %83, 65280
  %85 = and i32 %82, -65281
  %86 = or disjoint i32 %85, %84
  store i32 %86, ptr %81, align 8
  %87 = load ptr, ptr %1, align 8
  %88 = load i32, ptr %27, align 4
  %89 = sext i32 %88 to i64
  %90 = getelementptr inbounds %struct.HeadlineWordEntry, ptr %87, i64 %89
  %91 = load i32, ptr %90, align 8
  %92 = shl i32 %66, 16
  %93 = and i32 %91, 65535
  %94 = or disjoint i32 %93, %92
  store i32 %94, ptr %90, align 8
  %95 = sext i32 %66 to i64
  %96 = call ptr @palloc(i64 noundef %95) #7
  %97 = load ptr, ptr %1, align 8
  %98 = load i32, ptr %27, align 4
  %99 = sext i32 %98 to i64
  %100 = getelementptr inbounds %struct.HeadlineWordEntry, ptr %97, i64 %99, i32 2
  store ptr %96, ptr %100, align 8
  %101 = load ptr, ptr %1, align 8
  %102 = load i32, ptr %27, align 4
  %103 = sext i32 %102 to i64
  %104 = getelementptr inbounds %struct.HeadlineWordEntry, ptr %101, i64 %103, i32 2
  %105 = load ptr, ptr %104, align 8
  call void @llvm.memcpy.p0.p0.i64(ptr align 1 %105, ptr readonly align 1 %64, i64 %95, i1 false)
  %106 = load i32, ptr %27, align 4
  %107 = add i32 %106, 1
  store i32 %107, ptr %27, align 4
  br label %108

108:                                              ; preds = %hladdword.exit.i, %.lr.ph47.i
  %109 = getelementptr inbounds nuw i8, ptr %.03046.i, i64 24
  %110 = load ptr, ptr %109, align 8
  call void @pfree(ptr noundef nonnull %.03046.i) #7
  %.not.i = icmp eq ptr %110, null
  br i1 %.not.i, label %addHLParsedLex.exit, label %.lr.ph47.i, !llvm.loop !17

addHLParsedLex.exit:                              ; preds = %108, %54
  br i1 %.not, label %addHLParsedLex.exit.thread, label %52, !llvm.loop !18

addHLParsedLex.exit.thread:                       ; preds = %58, %addHLParsedLex.exit, %35, %37
  br i1 %32, label %29, label %111, !llvm.loop !19

111:                                              ; preds = %addHLParsedLex.exit.thread
  %112 = getelementptr inbounds nuw i8, ptr %13, i64 128
  %113 = call i64 @FunctionCall1Coll(ptr noundef nonnull %112, i32 noundef 0, i64 noundef %17) #7
  call void @llvm.lifetime.end.p0(i64 8, ptr nonnull %9) #7
  call void @llvm.lifetime.end.p0(i64 88, ptr nonnull %8) #7
  call void @llvm.lifetime.end.p0(i64 8, ptr nonnull %7) #7
  call void @llvm.lifetime.end.p0(i64 4, ptr nonnull %6) #7
  ret void
}